target datalayout = "e-m:e-p270:32:32-p271:32:32-p272:64:64-i64:64-i128:128-f80:128-n8:16:32:64-S128"
target triple = "x86_64-pc-linux-gnu"

%"class.spacer::spacer_arith_kernel" = type { ptr, %"struct.spacer::spacer_arith_kernel::stats", ptr, %"class.spacer::spacer_matrix", %class.vector.0, %class.scoped_ptr }
%"struct.spacer::spacer_arith_kernel::stats" = type { i32 }
%"class.spacer::spacer_matrix" = type { i32, i32, %class.vector }
%class.vector = type { ptr }
%class.vector.0 = type { ptr }
%class.scoped_ptr = type { ptr }

; Function Attrs: mustprogress nounwind uwtable
define linkonce_odr hidden noundef ptr @_ZNK10scoped_ptrIN6spacer19spacer_arith_kernel6pluginEEptEv(ptr noundef nonnull align 8 dereferenceable(8) %0) #5 comdat align 2 {
  %2 = alloca ptr, align 8
  store ptr %0, ptr %2, align 8, !tbaa !25
  %3 = load ptr, ptr %2, align 8
  %4 = getelementptr inbounds nuw %class.scoped_ptr, ptr %3, i32 0, i32 0
  %5 = load ptr, ptr %4, align 8, !tbaa !27
  ret ptr %5
}

; Function Attrs: mustprogress nounwind uwtable
define linkonce_odr hidden noundef zeroext i1 @_ZNK10scoped_ptrIN6spacer19spacer_arith_kernel6pluginEEcvbEv(ptr noundef nonnull align 8 dereferenceable(8) %0) #5 comdat align 2 {
  %2 = alloca ptr, align 8
  store ptr %0, ptr %2, align 8, !tbaa !25
  %3 = load ptr, ptr %2, align 8
  %4 = getelementptr inbounds nuw %class.scoped_ptr, ptr %3, i32 0, i32 0
  %5 = load ptr, ptr %4, align 8, !tbaa !27
  %6 = icmp ne ptr %5, null
  ret i1 %6
}

; Function Attrs: mustprogress nounwind uwtable
define linkonce_odr hidden noundef i32 @_ZNK6spacer13spacer_matrix8num_colsEv(ptr noundef nonnull align 8 dereferenceable(16) %0) #5 comdat align 2 {
  %2 = alloca ptr, align 8
  store ptr %0, ptr %2, align 8, !tbaa !23
  %3 = load ptr, ptr %2, align 8
  %4 = getelementptr inbounds nuw %"class.spacer::spacer_matrix", ptr %3, i32 0, i32 1
  %5 = load i32, ptr %4, align 4, !tbaa !24
  ret i32 %5
}

; Function Attrs: mustprogress uwtable
define hidden noundef zeroext i1 @_ZN6spacer19spacer_arith_kernel14compute_kernelEv(ptr noundef nonnull align 8 dereferenceable(56) %0) #4 align 2 {
  %2 = alloca i1, align 1
  %3 = alloca ptr, align 8
  store ptr %0, ptr %3, align 8, !tbaa !3
  %4 = load ptr, ptr %3, align 8
  %5 = getelementptr inbounds nuw %"class.spacer::spacer_arith_kernel", ptr %4, i32 0, i32 2
  %6 = load ptr, ptr %5, align 8, !tbaa !8
  %7 = call noundef i32 @_ZNK6spacer13spacer_matrix8num_colsEv(ptr noundef nonnull align 8 dereferenceable(16) %6)
  %8 = icmp ugt i32 %7, 2
  br i1 %8, label %9, label %14

9:                                                ; preds = %1
  %10 = getelementptr inbounds nuw %"class.spacer::spacer_arith_kernel", ptr %4, i32 0, i32 1
  %11 = getelementptr inbounds nuw %"struct.spacer::spacer_arith_kernel::stats", ptr %10, i32 0, i32 0
  %12 = load i32, ptr %11, align 8, !tbaa !20
  %13 = add i32 %12, 1
  store i32 %13, ptr %11, align 8, !tbaa !20
  br label %14

14:                                               ; preds = %9, %1
  %15 = getelementptr inbounds nuw %"class.spacer::spacer_arith_kernel", ptr %4, i32 0, i32 5
  %16 = call noundef zeroext i1 @_ZNK10scoped_ptrIN6spacer19spacer_arith_kernel6pluginEEcvbEv(ptr noundef nonnull align 8 dereferenceable(8) %15)
  br i1 %16, label %17, label %28

17:                                               ; preds = %14
  %18 = getelementptr inbounds nuw %"class.spacer::spacer_arith_kernel", ptr %4, i32 0, i32 5
  %19 = call noundef ptr @_ZNK10scoped_ptrIN6spacer19spacer_arith_kernel6pluginEEptEv(ptr noundef nonnull align 8 dereferenceable(8) %18)
  %20 = getelementptr inbounds nuw %"class.spacer::spacer_arith_kernel", ptr %4, i32 0, i32 2
  %21 = load ptr, ptr %20, align 8, !tbaa !8
  %22 = getelementptr inbounds nuw %"class.spacer::spacer_arith_kernel", ptr %4, i32 0, i32 3
  %23 = getelementptr inbounds nuw %"class.spacer::spacer_arith_kernel", ptr %4, i32 0, i32 4
  %24 = load ptr, ptr %19, align 8, !tbaa !21
  %25 = getelementptr inbounds ptr, ptr %24, i64 2
  %26 = load ptr, ptr %25, align 8
  %27 = call noundef zeroext i1 %26(ptr noundef nonnull align 8 dereferenceable(8) %19, ptr noundef nonnull align 8 dereferenceable(16) %21, ptr noundef nonnull align 8 dereferenceable(16) %22, ptr noundef nonnull align 8 dereferenceable(8) %23)
  store i1 %27, ptr %2, align 1
  br label %29

28:                                               ; preds = %14
  store i1 false, ptr %2, align 1
  br label %29

29:                                               ; preds = %28, %17
  %30 = load i1, ptr %2, align 1
  ret i1 %30
}