; Function Attrs: mustprogress uwtable
define hidden noundef zeroext i1 @_ZN6spacer19spacer_arith_kernel14compute_kernelEv(ptr noundef nonnull align 8 dereferenceable(56) %0) local_unnamed_addr #3 align 2 {
  %2 = getelementptr inbounds nuw i8, ptr %0, i64 16
  %3 = load ptr, ptr %2, align 8, !tbaa !3
  %4 = getelementptr inbounds nuw i8, ptr %3, i64 4
  %5 = load i32, ptr %4, align 4, !tbaa !18
  %6 = icmp ugt i32 %5, 2
  br i1 %6, label %7, label %11

7:                                                ; preds = %1
  %8 = getelementptr inbounds nuw i8, ptr %0, i64 8
  %9 = load i32, ptr %8, align 8, !tbaa !19
  %10 = add i32 %9, 1
  store i32 %10, ptr %8, align 8, !tbaa !19
  br label %11

11:                                               ; preds = %7, %1
  %12 = getelementptr inbounds nuw i8, ptr %0, i64 48
  %13 = load ptr, ptr %12, align 8, !tbaa !20
  %.not = icmp eq ptr %13, null
  br i1 %.not, label %21, label %14

14:                                               ; preds = %11
  %15 = getelementptr inbounds nuw i8, ptr %0, i64 24
  %16 = getelementptr inbounds nuw i8, ptr %0, i64 40
  %17 = load ptr, ptr %13, align 8, !tbaa !21
  %18 = getelementptr inbounds nuw i8, ptr %17, i64 16
  %19 = load ptr, ptr %18, align 8
  %20 = tail call noundef zeroext i1 %19(ptr noundef nonnull align 8 dereferenceable(8) %13, ptr noundef nonnull align 8 dereferenceable(16) %3, ptr noundef nonnull align 8 dereferenceable(16) %15, ptr noundef nonnull align 8 dereferenceable(8) %16)
  br label %21

21:                                               ; preds = %11, %14
  %.0 = phi i1 [ %20, %14 ], [ false, %11 ]
  ret i1 %.0
}